ccopy_reg
_reconstructor
p1
(cSymbolTable
SymbolTable
p2
c__builtin__
object
p3
NtRp4
(dp5
S'funcNo'
p6
I0
sS'tempNo'
p7
I8
sS'funcList'
p8
(lp9
S'main'
p10
aS'f'
asS'tempBase'
p11
S't'
sS'scopeNum'
p12
I0
sS'CurrScope'
p13
g10
sS'scope'
p14
(dp15
g10
g1
(cSymbolTable
LifeTime
p16
g3
NtRp17
(dp18
S'Vars'
p19
(dp20
S'y'
g1
(cSymbolTable
Symbol
p21
g3
NtRp22
(dp23
S'Locate'
p24
S't1'
p25
sS'Quad'
p26
I-1
sS'Iden'
p27
S'y'
sS'Scope'
p28
NsS'Value'
p29
NsS'BreakList'
p30
(lp31
sS'PosList'
p32
(lp33
sS'NextList'
p34
(lp35
sS'NegList'
p36
(lp37
sS'Type'
p38
S'INTEGER'
p39
sbsS'x'
g1
(g21
g3
NtRp40
(dp41
g24
S't0'
p42
sg26
I-1
sg27
S'x'
sg28
Nsg29
Nsg30
(lp43
sg32
(lp44
sg34
(lp45
sg36
(lp46
sg38
g39
sbssS'Parent'
p47
Nsg38
S'Main'
p48
sS'args'
p49
I0
sS'start'
p50
I0
sS'backup'
p51
I2
sbsS'f'
g1
(g16
g3
NtRp52
(dp53
g19
(dp54
S'a'
g1
(g21
g3
NtRp55
(dp56
g24
S't3'
p57
sg26
I-1
sg27
S'a'
sg28
Nsg29
Nsg30
(lp58
sg32
(lp59
sg34
(lp60
sg36
(lp61
sg38
NsbsS'b'
g1
(g21
g3
NtRp62
(dp63
g24
S't2'
p64
sg26
I-1
sg27
S'b'
sg28
Nsg29
Nsg30
(lp65
sg32
(lp66
sg34
(lp67
sg36
(lp68
sg38
NsbsS'z'
g1
(g21
g3
NtRp69
(dp70
g24
S't5'
p71
sg26
I-1
sg27
S'z'
sg28
Nsg29
Nsg30
(lp72
sg32
(lp73
sg34
(lp74
sg36
(lp75
sg38
Nsbssg47
g10
sg38
S'Function'
p76
sg49
I2
sg50
I1
sg51
I0
sbssS'CurrFunc'
p77
g10
sb.