ccopy_reg
_reconstructor
p1
(cSymbolTable
SymbolTable
p2
c__builtin__
object
p3
NtRp4
(dp5
S'funcNo'
p6
I0
sS'tempNo'
p7
I8
sS'funcList'
p8
(lp9
S'main'
p10
aS'f'
asS'tempBase'
p11
S't'
sS'scopeNum'
p12
I0
sS'CurrScope'
p13
g10
sS'scope'
p14
(dp15
g10
g1
(cSymbolTable
LifeTime
p16
g3
NtRp17
(dp18
S'Vars'
p19
(dp20
sS'Parent'
p21
NsS'Type'
p22
S'Main'
p23
sS'args'
p24
I0
sS'start'
p25
I0
sS'backup'
p26
I0
sbsS'f'
g1
(g16
g3
NtRp27
(dp28
g19
(dp29
S'y'
g1
(cSymbolTable
Symbol
p30
g3
NtRp31
(dp32
S'Locate'
p33
S't0'
p34
sS'Quad'
p35
I-1
sS'Iden'
p36
S'y'
sS'Scope'
p37
NsS'Value'
p38
NsS'BreakList'
p39
(lp40
sS'PosList'
p41
(lp42
sS'NextList'
p43
(lp44
sS'NegList'
p45
(lp46
sg22
NsbsS'x'
g1
(g30
g3
NtRp47
(dp48
g33
S't1'
p49
sg35
I-1
sg36
S'x'
sg37
Nsg38
Nsg39
(lp50
sg41
(lp51
sg43
(lp52
sg45
(lp53
sg22
NsbsS'd'
g1
(g30
g3
NtRp54
(dp55
g33
S't3'
p56
sg35
I-1
sg36
S'd'
sg37
Nsg38
Nsg39
(lp57
sg41
(lp58
sg43
(lp59
sg45
(lp60
sg22
Nsbssg21
g10
sg22
S'Function'
p61
sg24
I2
sg25
I1
sg26
I0
sbssS'CurrFunc'
p62
g10
sb.