ccopy_reg
_reconstructor
p1
(cSymbolTable
SymbolTable
p2
c__builtin__
object
p3
NtRp4
(dp5
S'funcNo'
p6
I0
sS'tempNo'
p7
I7
sS'funcList'
p8
(lp9
S'main'
p10
asS'tempBase'
p11
S't'
sS'scopeNum'
p12
I0
sS'CurrScope'
p13
g10
sS'scope'
p14
(dp15
g10
g1
(cSymbolTable
LifeTime
p16
g3
NtRp17
(dp18
S'Vars'
p19
(dp20
S'c'
g1
(cSymbolTable
Symbol
p21
g3
NtRp22
(dp23
S'Locate'
p24
S't0'
p25
sS'Quad'
p26
I-1
sS'Iden'
p27
S'c'
sS'Scope'
p28
NsS'Value'
p29
NsS'BreakList'
p30
(lp31
sS'PosList'
p32
(lp33
sS'NextList'
p34
(lp35
sS'NegList'
p36
(lp37
sS'Type'
p38
S'INTEGER'
p39
sbsS'e'
g1
(g21
g3
NtRp40
(dp41
g24
S't5'
p42
sg26
I-1
sg27
S'e'
sg28
Nsg29
Nsg30
(lp43
sg32
(lp44
sg34
(lp45
sg36
(lp46
sg38
S'String'
p47
sbsS'd'
g1
(g21
g3
NtRp48
(dp49
g24
S't1'
p50
sg26
I-1
sg27
S'd'
sg28
Nsg29
Nsg30
(lp51
sg32
(lp52
sg34
(lp53
sg36
(lp54
sg38
g39
sbssS'Parent'
p55
Nsg38
S'Main'
p56
sS'args'
p57
I0
sS'start'
p58
I0
sS'backup'
p59
I0
sbssS'CurrFunc'
p60
g10
sb.