ccopy_reg
_reconstructor
p1
(cSymbolTable
SymbolTable
p2
c__builtin__
object
p3
NtRp4
(dp5
S'funcNo'
p6
I0
sS'tempNo'
p7
I18
sS'funcList'
p8
(lp9
S'main'
p10
asS'tempBase'
p11
S't'
sS'scopeNum'
p12
I0
sS'CurrScope'
p13
g10
sS'scope'
p14
(dp15
g10
g1
(cSymbolTable
LifeTime
p16
g3
NtRp17
(dp18
S'Vars'
p19
(dp20
S'D'
g1
(cSymbolTable
Symbol
p21
g3
NtRp22
(dp23
S'Locate'
p24
S't2'
p25
sS'Quad'
p26
I-1
sS'Iden'
p27
S'D'
sS'Scope'
p28
NsS'Value'
p29
NsS'BreakList'
p30
(lp31
sS'PosList'
p32
(lp33
sS'NextList'
p34
(lp35
sS'NegList'
p36
(lp37
sS'Type'
p38
S'Dictionary0'
p39
sbsS'ss'
p40
g1
(g21
g3
NtRp41
(dp42
g24
S't16'
p43
sg26
I-1
sg27
g40
sg28
Nsg29
Nsg30
(lp44
sg32
(lp45
sg34
(lp46
sg36
(lp47
sg38
NsbsS'dd'
p48
g1
(g21
g3
NtRp49
(dp50
g24
S't5'
p51
sg26
I-1
sg27
g48
sg28
Nsg29
Nsg30
(lp52
sg32
(lp53
sg34
(lp54
sg36
(lp55
sg38
S'String'
p56
sbsS'p'
g1
(g21
g3
NtRp57
(dp58
g24
S't10'
p59
sg26
I-1
sg27
S'p'
sg28
Nsg29
Nsg30
(lp60
sg32
(lp61
sg34
(lp62
sg36
(lp63
sg38
S'INTEGER'
p64
sbsS'hh'
p65
g1
(g21
g3
NtRp66
(dp67
g24
S't12'
p68
sg26
I-1
sg27
g65
sg28
Nsg29
Nsg30
(lp69
sg32
(lp70
sg34
(lp71
sg36
(lp72
sg38
S'DictInsert'
p73
sbsS't'
g1
(g21
g3
NtRp74
(dp75
g24
S't7'
p76
sg26
I-1
sg27
S't'
sg28
Nsg29
Nsg30
(lp77
sg32
(lp78
sg34
(lp79
sg36
(lp80
sg38
NsbsNg1
(g21
g3
NtRp81
(dp82
g24
S't1'
p83
sg26
I-1
sg27
Nsg28
Nsg29
Nsg30
(lp84
sg32
(lp85
sg34
(lp86
sg36
(lp87
sg38
NsbsS'z'
g1
(g21
g3
NtRp88
(dp89
g24
S't0'
p90
sg26
I-1
sg27
S'z'
sg28
Nsg29
Nsg30
(lp91
sg32
(lp92
sg34
(lp93
sg36
(lp94
sg38
g64
sbssS'Parent'
p95
Nsg38
S'Main'
p96
sS'args'
p97
I0
sS'start'
p98
I0
sS'backup'
p99
I0
sbssS'CurrFunc'
p100
g10
sb.