ccopy_reg
_reconstructor
p1
(cSymbolTable
SymbolTable
p2
c__builtin__
object
p3
NtRp4
(dp5
S'funcNo'
p6
I0
sS'tempNo'
p7
I1
sS'funcList'
p8
(lp9
S'main'
p10
asS'tempBase'
p11
S't'
sS'scopeNum'
p12
I0
sS'CurrScope'
p13
g10
sS'scope'
p14
(dp15
g10
g1
(cSymbolTable
LifeTime
p16
g3
NtRp17
(dp18
S'Vars'
p19
(dp20
S'x'
g1
(cSymbolTable
Symbol
p21
g3
NtRp22
(dp23
S'Locate'
p24
S't0'
p25
sS'Quad'
p26
I-1
sS'Iden'
p27
S'x'
sS'Scope'
p28
NsS'Value'
p29
NsS'BreakList'
p30
(lp31
sS'PosList'
p32
(lp33
sS'NextList'
p34
(lp35
sS'NegList'
p36
(lp37
sS'Type'
p38
S'INTEGER'
p39
sbsNg1
(g21
g3
NtRp40
(dp41
g24
g25
sg26
I-1
sg27
Nsg28
Nsg29
Nsg30
(lp42
sg32
(lp43
sg34
(lp44
sg36
(lp45
sg38
NsbssS'Parent'
p46
Nsg38
S'Main'
p47
sS'args'
p48
I0
sS'start'
p49
I0
sS'backup'
p50
I0
sbssS'CurrFunc'
p51
g10
sb.