ccopy_reg
_reconstructor
p1
(cSymbolTable
SymbolTable
p2
c__builtin__
object
p3
NtRp4
(dp5
S'funcNo'
p6
I0
sS'tempNo'
p7
I10
sS'funcList'
p8
(lp9
S'main'
p10
aS'f'
asS'tempBase'
p11
S't'
sS'scopeNum'
p12
I0
sS'CurrScope'
p13
g10
sS'scope'
p14
(dp15
g10
g1
(cSymbolTable
LifeTime
p16
g3
NtRp17
(dp18
S'Vars'
p19
(dp20
S'y'
g1
(cSymbolTable
Symbol
p21
g3
NtRp22
(dp23
S'Locate'
p24
S't1'
p25
sS'Quad'
p26
I-1
sS'Iden'
p27
S'y'
sS'Scope'
p28
NsS'Value'
p29
NsS'BreakList'
p30
(lp31
sS'PosList'
p32
(lp33
sS'NextList'
p34
(lp35
sS'NegList'
p36
(lp37
sS'Type'
p38
S'INTEGER'
p39
sbsS'x'
g1
(g21
g3
NtRp40
(dp41
g24
S't0'
p42
sg26
I-1
sg27
S'x'
sg28
Nsg29
Nsg30
(lp43
sg32
(lp44
sg34
(lp45
sg36
(lp46
sg38
g39
sbsNg1
(g21
g3
NtRp47
(dp48
g24
S't2'
p49
sg26
I-1
sg27
Nsg28
Nsg29
Nsg30
(lp50
sg32
(lp51
sg34
(lp52
sg36
(lp53
sg38
NsbsS't'
g1
(g21
g3
NtRp54
(dp55
g24
S't3'
p56
sg26
I-1
sg27
S't'
sg28
Nsg29
Nsg30
(lp57
sg32
(lp58
sg34
(lp59
sg36
(lp60
sg38
S'Dictionary0'
p61
sbssS'Parent'
p62
Nsg38
S'Main'
p63
sS'args'
p64
I0
sS'start'
p65
I0
sS'backup'
p66
I5
sbsS'f'
g1
(g16
g3
NtRp67
(dp68
g19
(dp69
S'a'
g1
(g21
g3
NtRp70
(dp71
g24
S't5'
p72
sg26
I-1
sg27
S'a'
sg28
Nsg29
Nsg30
(lp73
sg32
(lp74
sg34
(lp75
sg36
(lp76
sg38
NsbsS'b'
g1
(g21
g3
NtRp77
(dp78
g24
S't4'
p79
sg26
I-1
sg27
S'b'
sg28
Nsg29
Nsg30
(lp80
sg32
(lp81
sg34
(lp82
sg36
(lp83
sg38
NsbsS'z'
g1
(g21
g3
NtRp84
(dp85
g24
S't7'
p86
sg26
I-1
sg27
S'z'
sg28
Nsg29
Nsg30
(lp87
sg32
(lp88
sg34
(lp89
sg36
(lp90
sg38
Nsbssg62
g10
sg38
S'Function'
p91
sg64
I2
sg65
I1
sg66
I0
sbssS'CurrFunc'
p92
g10
sb.