ccopy_reg
_reconstructor
p1
(cSymbolTable
SymbolTable
p2
c__builtin__
object
p3
NtRp4
(dp5
S'funcNo'
p6
I0
sS'tempNo'
p7
I5
sS'funcList'
p8
(lp9
S'main'
p10
aS'f1'
p11
aS'z'
aS'g1'
p12
asS'tempBase'
p13
S't'
sS'scopeNum'
p14
I1
sS'CurrScope'
p15
g10
sS'scope'
p16
(dp17
g11
g1
(cSymbolTable
LifeTime
p18
g3
NtRp19
(dp20
S'Vars'
p21
(dp22
sS'Parent'
p23
g10
sS'Type'
p24
S'Function'
p25
sS'args'
p26
I0
sS'start'
p27
I1
sS'backup'
p28
I7
sbsg10
g1
(g18
g3
NtRp29
(dp30
g21
(dp31
S'y'
g1
(cSymbolTable
Symbol
p32
g3
NtRp33
(dp34
S'Locate'
p35
S't0'
p36
sS'Quad'
p37
I-1
sS'Iden'
p38
S'y'
sS'Scope'
p39
NsS'Value'
p40
NsS'BreakList'
p41
(lp42
sS'PosList'
p43
(lp44
sS'NextList'
p45
(lp46
sS'NegList'
p47
(lp48
sg24
S'INTEGER'
p49
sbsS'dd'
p50
g1
(g32
g3
NtRp51
(dp52
g35
S't4'
p53
sg37
I-1
sg38
g50
sg39
Nsg40
Nsg41
(lp54
sg43
(lp55
sg45
(lp56
sg47
(lp57
sg24
Nsbssg23
Nsg24
S'Main'
p58
sg26
I0
sg27
I0
sg28
I2
sbsS'z'
g1
(g18
g3
NtRp59
(dp60
g21
(dp61
sg23
g11
sg24
g25
sg26
I0
sg27
I1
sg28
I0
sbsg12
g1
(g18
g3
NtRp62
(dp63
g21
(dp64
sg23
g10
sg24
g25
sg26
I0
sg27
I1
sg28
I0
sbsS'f1_1'
p65
g1
(g18
g3
NtRp66
(dp67
g21
(dp68
S'y'
g1
(g32
g3
NtRp69
(dp70
g35
S't1'
p71
sg37
I-1
sg38
S'y'
sg39
Nsg40
Nsg41
(lp72
sg43
(lp73
sg45
(lp74
sg47
(lp75
sg24
g49
sbssg23
g11
sg24
S'DO'
p76
sg26
I0
sg27
I0
sg28
I0
sbssS'CurrFunc'
p77
g10
sb.