ccopy_reg
_reconstructor
p1
(cSymbolTable
SymbolTable
p2
c__builtin__
object
p3
NtRp4
(dp5
S'funcNo'
p6
I0
sS'tempNo'
p7
I3
sS'funcList'
p8
(lp9
S'main'
p10
asS'tempBase'
p11
S't'
sS'scopeNum'
p12
I0
sS'CurrScope'
p13
g10
sS'scope'
p14
(dp15
g10
g1
(cSymbolTable
LifeTime
p16
g3
NtRp17
(dp18
S'Vars'
p19
(dp20
S'A'
g1
(cSymbolTable
Symbol
p21
g3
NtRp22
(dp23
S'Locate'
p24
S't2'
p25
sS'Quad'
p26
I-1
sS'Iden'
p27
S'A'
sS'Scope'
p28
NsS'Value'
p29
NsS'BreakList'
p30
(lp31
sS'PosList'
p32
(lp33
sS'NextList'
p34
(lp35
sS'NegList'
p36
(lp37
sS'Type'
p38
S'Dictionary[(<SymbolTable.Symbol object at 0x7fee44e37c50>, <SymbolTable.Symbol object at 0x7fee44e548d0>)]'
p39
sbsNg1
(g21
g3
NtRp40
(dp41
g24
S't1'
p42
sg26
I-1
sg27
Nsg28
Nsg29
Nsg30
(lp43
sg32
(lp44
sg34
(lp45
sg36
(lp46
sg38
NsbsS'z'
g1
(g21
g3
NtRp47
(dp48
g24
S't0'
p49
sg26
I-1
sg27
S'z'
sg28
Nsg29
Nsg30
(lp50
sg32
(lp51
sg34
(lp52
sg36
(lp53
sg38
S'INTEGER'
p54
sbssS'Parent'
p55
Nsg38
S'Main'
p56
sS'args'
p57
I0
sS'start'
p58
I0
sS'backup'
p59
I0
sbssS'CurrFunc'
p60
g10
sb.